target datalayout = "e-m:e-p270:32:32-p271:32:32-p272:64:64-i64:64-i128:128-f80:128-n8:16:32:64-S128"
target triple = "x86_64-pc-linux-gnu"

%struct.job_record = type { i32, ptr, ptr, ptr, ptr, i16, i32, i32, i32, ptr, i32, ptr, ptr, i16, ptr, double, i64, ptr, ptr, ptr, ptr, ptr, ptr, i32, ptr, i32, i64, i64, i32, i32, ptr, i16, i64, i64, i8, i32, ptr, ptr, ptr, ptr, ptr, ptr, ptr, ptr, i32, ptr, ptr, i32, ptr, i32, ptr, i32, ptr, i32, ptr, ptr, ptr, ptr, ptr, ptr, i32, i16, i64, ptr, ptr, ptr, ptr, %struct.acct_policy_limit_set_t, i16, ptr, ptr, ptr, ptr, ptr, i32, ptr, ptr, ptr, ptr, ptr, i32, i32, ptr, ptr, ptr, i16, ptr, ptr, i8, ptr, ptr, i64, i64, i8, i32, i32, i8, i32, ptr, i32, i64, i32, ptr, ptr, ptr, i8, i16, i64, i32, ptr, ptr, ptr, ptr, ptr, i16, i32, ptr, ptr, ptr, ptr, i32, ptr, i32, i16, i64, ptr, i32, i32, ptr, i64, ptr, ptr, i64, i32, i32, i64, i32, i32, ptr, ptr, ptr, ptr, ptr, ptr, ptr, ptr, ptr, ptr, ptr, ptr, i32, ptr, i16, i16, i16, i16, ptr, i32, i32, i8, i64 }
%struct.acct_policy_limit_set_t = type { i16, i16, ptr }

@port_resv_table = dso_local global ptr null, align 8
@port_resv_cnt = dso_local global i32 0, align 4
@port_resv_min = dso_local global i32 0, align 4
@port_resv_max = dso_local global i32 0, align 4
@.str.1 = private unnamed_addr constant [27 x i8] c"Clearing port reservations\00", align 1
@.str.3 = private unnamed_addr constant [38 x i8] c"Ports available for reservation %u-%u\00", align 1
@.str.4 = private unnamed_addr constant [11 x i8] c"port_mgr.c\00", align 1
@.str.5 = private unnamed_addr constant [35 x i8] c"%pJ has invalid reserved ports: %s\00", align 1
@.str.6 = private unnamed_addr constant [47 x i8] c"Problem recovering resv_port_array for %pJ: %s\00", align 1
@__func__.reserve_port_stepmgr_init = private unnamed_addr constant [26 x i8] c"reserve_port_stepmgr_init\00", align 1

; Function Attrs: nounwind uwtable
define internal void @_dump_resv_port_info() #0 {
  ret void
}

; Function Attrs: nounwind uwtable
define dso_local i32 @reserve_port_stepmgr_init(ptr noundef %0) #0 {
  %2 = alloca i32, align 4
  %3 = alloca ptr, align 8
  %4 = alloca i32, align 4
  %5 = alloca i32, align 4
  %6 = alloca i32, align 4
  %7 = alloca i32, align 4
  %8 = alloca i32, align 4
  %9 = alloca i32, align 4
  store ptr %0, ptr %3, align 8
  call void @llvm.lifetime.start.p0(i64 4, ptr %4) #6
  call void @llvm.lifetime.start.p0(i64 4, ptr %5) #6
  call void @llvm.lifetime.start.p0(i64 4, ptr %6) #6
  call void @llvm.lifetime.start.p0(i64 4, ptr %7) #6
  store i32 0, ptr %7, align 4
  call void @llvm.lifetime.start.p0(i64 4, ptr %8) #6
  %10 = load ptr, ptr %3, align 8
  %11 = getelementptr inbounds nuw %struct.job_record, ptr %10, i32 0, i32 112
  %12 = load ptr, ptr %11, align 8
  %13 = icmp eq ptr %12, null
  br i1 %13, label %14, label %57

14:                                               ; preds = %1
  %15 = load ptr, ptr @port_resv_table, align 8
  %16 = icmp ne ptr %15, null
  br i1 %16, label %17, label %56

17:                                               ; preds = %14
  br label %18

18:                                               ; preds = %17
  br label %19

19:                                               ; preds = %18
  %20 = call i32 @get_log_level()
  %21 = icmp sge i32 %20, 3
  br i1 %21, label %22, label %23

22:                                               ; preds = %19
  call void (i32, ptr, ...) @log_var(i32 noundef 3, ptr noundef @.str.1)
  br label %23

23:                                               ; preds = %22, %19
  br label %24

24:                                               ; preds = %23
  br label %25

25:                                               ; preds = %24
  br label %26

26:                                               ; preds = %25
  br label %27

27:                                               ; preds = %26
  store i32 0, ptr %6, align 4
  br label %28

28:                                               ; preds = %52, %27
  %29 = load i32, ptr %6, align 4
  %30 = load i32, ptr @port_resv_cnt, align 4
  %31 = icmp slt i32 %29, %30
  br i1 %31, label %32, label %55

32:                                               ; preds = %28
  br label %33

33:                                               ; preds = %32
  %34 = load ptr, ptr @port_resv_table, align 8
  %35 = load i32, ptr %6, align 4
  %36 = sext i32 %35 to i64
  %37 = getelementptr inbounds ptr, ptr %34, i64 %36
  %38 = load ptr, ptr %37, align 8
  %39 = icmp ne ptr %38, null
  br i1 %39, label %40, label %45

40:                                               ; preds = %33
  %41 = load ptr, ptr @port_resv_table, align 8
  %42 = load i32, ptr %6, align 4
  %43 = sext i32 %42 to i64
  %44 = getelementptr inbounds ptr, ptr %41, i64 %43
  call void @slurm_bit_free(ptr noundef %44)
  br label %45

45:                                               ; preds = %40, %33
  %46 = load ptr, ptr @port_resv_table, align 8
  %47 = load i32, ptr %6, align 4
  %48 = sext i32 %47 to i64
  %49 = getelementptr inbounds ptr, ptr %46, i64 %48
  store ptr null, ptr %49, align 8
  br label %50

50:                                               ; preds = %45
  br label %51

51:                                               ; preds = %50
  br label %52

52:                                               ; preds = %51
  %53 = load i32, ptr %6, align 4
  %54 = add nsw i32 %53, 1
  store i32 %54, ptr %6, align 4
  br label %28, !llvm.loop !14

55:                                               ; preds = %28
  call void @slurm_xfree(ptr noundef @port_resv_table)
  store i32 0, ptr @port_resv_cnt, align 4
  store i32 0, ptr @port_resv_max, align 4
  store i32 0, ptr @port_resv_min, align 4
  br label %56

56:                                               ; preds = %55, %14
  store i32 0, ptr %2, align 4
  store i32 1, ptr %9, align 4
  br label %171

57:                                               ; preds = %1
  %58 = load ptr, ptr %3, align 8
  %59 = getelementptr inbounds nuw %struct.job_record, ptr %58, i32 0, i32 113
  %60 = load ptr, ptr %59, align 8
  %61 = icmp ne ptr %60, null
  br i1 %61, label %90, label %62

62:                                               ; preds = %57
  %63 = load ptr, ptr %3, align 8
  %64 = getelementptr inbounds nuw %struct.job_record, ptr %63, i32 0, i32 112
  %65 = load ptr, ptr %64, align 8
  %66 = load ptr, ptr %3, align 8
  %67 = getelementptr inbounds nuw %struct.job_record, ptr %66, i32 0, i32 114
  %68 = load ptr, ptr %3, align 8
  %69 = getelementptr inbounds nuw %struct.job_record, ptr %68, i32 0, i32 113
  %70 = call i32 @_rebuild_port_array(ptr noundef %65, ptr noundef %67, ptr noundef %69)
  store i32 %70, ptr %8, align 4
  %71 = icmp ne i32 %70, 0
  br i1 %71, label %72, label %90

72:                                               ; preds = %62
  %73 = load i32, ptr %8, align 4
  %74 = icmp eq i32 %73, 2060
  br i1 %74, label %75, label %81

75:                                               ; preds = %72
  %76 = load ptr, ptr %3, align 8
  %77 = load ptr, ptr %3, align 8
  %78 = getelementptr inbounds nuw %struct.job_record, ptr %77, i32 0, i32 112
  %79 = load ptr, ptr %78, align 8
  %80 = call i32 (ptr, ...) @error(ptr noundef @.str.5, ptr noundef %76, ptr noundef %79)
  br label %87

81:                                               ; preds = %72
  %82 = load ptr, ptr %3, align 8
  %83 = load ptr, ptr %3, align 8
  %84 = getelementptr inbounds nuw %struct.job_record, ptr %83, i32 0, i32 112
  %85 = load ptr, ptr %84, align 8
  %86 = call i32 (ptr, ...) @error(ptr noundef @.str.6, ptr noundef %82, ptr noundef %85)
  br label %87

87:                                               ; preds = %81, %75
  %88 = load ptr, ptr %3, align 8
  %89 = getelementptr inbounds nuw %struct.job_record, ptr %88, i32 0, i32 112
  call void @slurm_xfree(ptr noundef %89)
  store i32 -1, ptr %2, align 4
  store i32 1, ptr %9, align 4
  br label %171

90:                                               ; preds = %62, %57
  %91 = load ptr, ptr %3, align 8
  %92 = getelementptr inbounds nuw %struct.job_record, ptr %91, i32 0, i32 113
  %93 = load ptr, ptr %92, align 8
  %94 = getelementptr inbounds i32, ptr %93, i64 0
  %95 = load i32, ptr %94, align 4
  store i32 %95, ptr %4, align 4
  %96 = load ptr, ptr %3, align 8
  %97 = getelementptr inbounds nuw %struct.job_record, ptr %96, i32 0, i32 113
  %98 = load ptr, ptr %97, align 8
  %99 = load ptr, ptr %3, align 8
  %100 = getelementptr inbounds nuw %struct.job_record, ptr %99, i32 0, i32 114
  %101 = load i16, ptr %100, align 8
  %102 = zext i16 %101 to i32
  %103 = sub nsw i32 %102, 1
  %104 = sext i32 %103 to i64
  %105 = getelementptr inbounds i32, ptr %98, i64 %104
  %106 = load i32, ptr %105, align 4
  store i32 %106, ptr %5, align 4
  %107 = load i32, ptr %4, align 4
  %108 = load i32, ptr @port_resv_min, align 4
  %109 = icmp eq i32 %107, %108
  br i1 %109, label %110, label %115

110:                                              ; preds = %90
  %111 = load i32, ptr %5, align 4
  %112 = load i32, ptr @port_resv_max, align 4
  %113 = icmp eq i32 %111, %112
  br i1 %113, label %114, label %115

114:                                              ; preds = %110
  call void @_dump_resv_port_info()
  store i32 0, ptr %2, align 4
  store i32 1, ptr %9, align 4
  br label %171

115:                                              ; preds = %110, %90
  %116 = load i32, ptr %4, align 4
  store i32 %116, ptr @port_resv_min, align 4
  %117 = load i32, ptr %5, align 4
  store i32 %117, ptr @port_resv_max, align 4
  %118 = load i32, ptr %5, align 4
  %119 = load i32, ptr %4, align 4
  %120 = sub nsw i32 %118, %119
  %121 = add nsw i32 %120, 1
  store i32 %121, ptr @port_resv_cnt, align 4
  br label %122

122:                                              ; preds = %115
  br label %123

123:                                              ; preds = %122
  %124 = call i32 @get_log_level()
  %125 = icmp sge i32 %124, 5
  br i1 %125, label %126, label %129

126:                                              ; preds = %123
  %127 = load i32, ptr @port_resv_min, align 4
  %128 = load i32, ptr @port_resv_max, align 4
  call void (i32, ptr, ...) @log_var(i32 noundef 5, ptr noundef @.str.3, i32 noundef %127, i32 noundef %128)
  br label %129

129:                                              ; preds = %126, %123
  br label %130

130:                                              ; preds = %129
  br label %131

131:                                              ; preds = %130
  br label %132

132:                                              ; preds = %131
  br label %133

133:                                              ; preds = %132
  call void @slurm_xfree(ptr noundef @port_resv_table)
  %134 = load i32, ptr @port_resv_cnt, align 4
  %135 = sext i32 %134 to i64
  %136 = mul i64 8, %135
  %137 = call ptr @slurm_xcalloc(i64 noundef 1, i64 noundef %136, i1 noundef zeroext true, i1 noundef zeroext false, ptr noundef @.str.4, i32 noundef 315, ptr noundef @__func__.reserve_port_stepmgr_init)
  store ptr %137, ptr @port_resv_table, align 8
  store i32 0, ptr %6, align 4
  br label %138

138:                                              ; preds = %167, %133
  %139 = load i32, ptr %6, align 4
  %140 = load i32, ptr @port_resv_cnt, align 4
  %141 = icmp slt i32 %139, %140
  br i1 %141, label %142, label %170

142:                                              ; preds = %138
  %143 = load ptr, ptr %3, align 8
  %144 = getelementptr inbounds nuw %struct.job_record, ptr %143, i32 0, i32 113
  %145 = load ptr, ptr %144, align 8
  %146 = load i32, ptr %7, align 4
  %147 = sext i32 %146 to i64
  %148 = getelementptr inbounds i32, ptr %145, i64 %147
  %149 = load i32, ptr %148, align 4
  %150 = load i32, ptr %6, align 4
  %151 = load i32, ptr @port_resv_min, align 4
  %152 = add nsw i32 %150, %151
  %153 = icmp ne i32 %149, %152
  br i1 %153, label %154, label %155

154:                                              ; preds = %142
  br label %167

155:                                              ; preds = %142
  %156 = load ptr, ptr %3, align 8
  %157 = getelementptr inbounds nuw %struct.job_record, ptr %156, i32 0, i32 77
  %158 = load ptr, ptr %157, align 8
  %159 = call i64 @bit_size(ptr noundef %158)
  %160 = call ptr @bit_alloc(i64 noundef %159)
  %161 = load ptr, ptr @port_resv_table, align 8
  %162 = load i32, ptr %6, align 4
  %163 = sext i32 %162 to i64
  %164 = getelementptr inbounds ptr, ptr %161, i64 %163
  store ptr %160, ptr %164, align 8
  %165 = load i32, ptr %7, align 4
  %166 = add nsw i32 %165, 1
  store i32 %166, ptr %7, align 4
  br label %167

167:                                              ; preds = %155, %154
  %168 = load i32, ptr %6, align 4
  %169 = add nsw i32 %168, 1
  store i32 %169, ptr %6, align 4
  br label %138, !llvm.loop !15

170:                                              ; preds = %138
  call void @_dump_resv_port_info()
  store i32 0, ptr %2, align 4
  store i32 1, ptr %9, align 4
  br label %171

171:                                              ; preds = %170, %114, %87, %56
  call void @llvm.lifetime.end.p0(i64 4, ptr %8) #6
  call void @llvm.lifetime.end.p0(i64 4, ptr %7) #6
  call void @llvm.lifetime.end.p0(i64 4, ptr %6) #6
  call void @llvm.lifetime.end.p0(i64 4, ptr %5) #6
  call void @llvm.lifetime.end.p0(i64 4, ptr %4) #6
  %172 = load i32, ptr %2, align 4
  ret i32 %172
}