; Function Attrs: nounwind uwtable
define dso_local range(i32 -1, 1) i32 @reserve_port_stepmgr_init(ptr noundef %0) local_unnamed_addr #0 {
  %2 = getelementptr inbounds nuw i8, ptr %0, i64 832
  %3 = load ptr, ptr %2, align 8
  %4 = icmp eq ptr %3, null
  br i1 %4, label %5, label %25

5:                                                ; preds = %1
  %6 = load ptr, ptr @port_resv_table, align 8
  %.not40 = icmp eq ptr %6, null
  br i1 %.not40, label %.loopexit, label %7

7:                                                ; preds = %5
  %8 = tail call i32 @get_log_level() #8
  %9 = icmp sgt i32 %8, 2
  br i1 %9, label %10, label %11

10:                                               ; preds = %7
  tail call void (i32, ptr, ...) @log_var(i32 noundef 3, ptr noundef nonnull @.str.1) #8
  br label %11

11:                                               ; preds = %10, %7
  %12 = load i32, ptr @port_resv_cnt, align 4
  %13 = icmp sgt i32 %12, 0
  br i1 %13, label %.lr.ph46, label %._crit_edge

.lr.ph46:                                         ; preds = %11, %19
  %14 = phi i32 [ %20, %19 ], [ %12, %11 ]
  %indvars.iv48 = phi i64 [ %indvars.iv.next49, %19 ], [ 0, %11 ]
  %15 = load ptr, ptr @port_resv_table, align 8
  %16 = getelementptr inbounds nuw ptr, ptr %15, i64 %indvars.iv48
  %17 = load ptr, ptr %16, align 8
  %.not41 = icmp eq ptr %17, null
  br i1 %.not41, label %19, label %18

18:                                               ; preds = %.lr.ph46
  tail call void @slurm_bit_free(ptr noundef nonnull %16) #8
  %.pre55 = load ptr, ptr @port_resv_table, align 8
  %.pre56 = load i32, ptr @port_resv_cnt, align 4
  br label %19

19:                                               ; preds = %18, %.lr.ph46
  %20 = phi i32 [ %.pre56, %18 ], [ %14, %.lr.ph46 ]
  %21 = phi ptr [ %.pre55, %18 ], [ %15, %.lr.ph46 ]
  %22 = getelementptr inbounds nuw ptr, ptr %21, i64 %indvars.iv48
  store ptr null, ptr %22, align 8
  %indvars.iv.next49 = add nuw nsw i64 %indvars.iv48, 1
  %23 = sext i32 %20 to i64
  %24 = icmp slt i64 %indvars.iv.next49, %23
  br i1 %24, label %.lr.ph46, label %._crit_edge, !llvm.loop !16

._crit_edge:                                      ; preds = %19, %11
  tail call void @slurm_xfree(ptr noundef nonnull @port_resv_table) #8
  store i32 0, ptr @port_resv_cnt, align 4
  store i32 0, ptr @port_resv_max, align 4
  store i32 0, ptr @port_resv_min, align 4
  br label %.loopexit

25:                                               ; preds = %1
  %26 = getelementptr inbounds nuw i8, ptr %0, i64 840
  %27 = load ptr, ptr %26, align 8
  %.not = icmp eq ptr %27, null
  br i1 %.not, label %28, label %35

28:                                               ; preds = %25
  %29 = getelementptr inbounds nuw i8, ptr %0, i64 848
  %30 = tail call fastcc i32 @_rebuild_port_array(ptr noundef %3, ptr noundef nonnull %29, ptr noundef nonnull %26)
  switch i32 %30, label %31 [
    i32 0, label %._crit_edge51
    i32 2060, label %32
  ]

._crit_edge51:                                    ; preds = %28
  %.pre = load ptr, ptr %26, align 8
  br label %35

31:                                               ; preds = %28
  br label %32

32:                                               ; preds = %28, %31
  %.str.6.sink = phi ptr [ @.str.6, %31 ], [ @.str.5, %28 ]
  %33 = load ptr, ptr %2, align 8
  %34 = tail call i32 (ptr, ...) @error(ptr noundef nonnull %.str.6.sink, ptr noundef nonnull %0, ptr noundef %33) #8
  tail call void @slurm_xfree(ptr noundef nonnull %2) #8
  br label %.loopexit

35:                                               ; preds = %._crit_edge51, %25
  %36 = phi ptr [ %.pre, %._crit_edge51 ], [ %27, %25 ]
  %37 = load i32, ptr %36, align 4
  %38 = getelementptr inbounds nuw i8, ptr %0, i64 848
  %39 = load i16, ptr %38, align 8
  %40 = zext i16 %39 to i64
  %41 = getelementptr i32, ptr %36, i64 %40
  %42 = getelementptr i8, ptr %41, i64 -4
  %43 = load i32, ptr %42, align 4
  %44 = load i32, ptr @port_resv_min, align 4
  %45 = icmp eq i32 %37, %44
  %46 = load i32, ptr @port_resv_max, align 4
  %47 = icmp eq i32 %43, %46
  %or.cond = select i1 %45, i1 %47, i1 false
  br i1 %or.cond, label %.loopexit, label %48

48:                                               ; preds = %35
  store i32 %37, ptr @port_resv_min, align 4
  store i32 %43, ptr @port_resv_max, align 4
  %reass.sub = sub i32 %43, %37
  %49 = add i32 %reass.sub, 1
  store i32 %49, ptr @port_resv_cnt, align 4
  %50 = tail call i32 @get_log_level() #8
  %51 = icmp sgt i32 %50, 4
  br i1 %51, label %52, label %55

52:                                               ; preds = %48
  %53 = load i32, ptr @port_resv_min, align 4
  %54 = load i32, ptr @port_resv_max, align 4
  tail call void (i32, ptr, ...) @log_var(i32 noundef 5, ptr noundef nonnull @.str.3, i32 noundef %53, i32 noundef %54) #8
  br label %55

55:                                               ; preds = %52, %48
  tail call void @slurm_xfree(ptr noundef nonnull @port_resv_table) #8
  %56 = load i32, ptr @port_resv_cnt, align 4
  %57 = sext i32 %56 to i64
  %58 = shl nsw i64 %57, 3
  %59 = tail call ptr @slurm_xcalloc(i64 noundef 1, i64 noundef %58, i1 noundef zeroext true, i1 noundef zeroext false, ptr noundef nonnull @.str.4, i32 noundef 315, ptr noundef nonnull @__func__.reserve_port_stepmgr_init) #8
  store ptr %59, ptr @port_resv_table, align 8
  %60 = load i32, ptr @port_resv_cnt, align 4
  %61 = icmp sgt i32 %60, 0
  br i1 %61, label %.lr.ph, label %.loopexit

.lr.ph:                                           ; preds = %55
  %62 = getelementptr inbounds nuw i8, ptr %0, i64 584
  %.pre53 = load i32, ptr @port_resv_min, align 4
  br label %63

63:                                               ; preds = %.lr.ph, %78
  %64 = phi i32 [ %60, %.lr.ph ], [ %79, %78 ]
  %65 = phi i32 [ %.pre53, %.lr.ph ], [ %80, %78 ]
  %indvars.iv = phi i64 [ 0, %.lr.ph ], [ %indvars.iv.next, %78 ]
  %.03344 = phi i32 [ 0, %.lr.ph ], [ %.1, %78 ]
  %indvars47 = trunc i64 %indvars.iv to i32
  %66 = load ptr, ptr %26, align 8
  %67 = sext i32 %.03344 to i64
  %68 = getelementptr inbounds i32, ptr %66, i64 %67
  %69 = load i32, ptr %68, align 4
  %70 = add nsw i32 %65, %indvars47
  %.not39 = icmp eq i32 %69, %70
  br i1 %.not39, label %71, label %78

71:                                               ; preds = %63
  %72 = load ptr, ptr %62, align 8
  %73 = tail call i64 @bit_size(ptr noundef %72) #8
  %74 = tail call ptr @bit_alloc(i64 noundef %73) #8
  %75 = load ptr, ptr @port_resv_table, align 8
  %76 = getelementptr inbounds nuw ptr, ptr %75, i64 %indvars.iv
  store ptr %74, ptr %76, align 8
  %77 = add nsw i32 %.03344, 1
  %.pre52 = load i32, ptr @port_resv_min, align 4
  %.pre54 = load i32, ptr @port_resv_cnt, align 4
  br label %78

78:                                               ; preds = %63, %71
  %79 = phi i32 [ %64, %63 ], [ %.pre54, %71 ]
  %80 = phi i32 [ %65, %63 ], [ %.pre52, %71 ]
  %.1 = phi i32 [ %.03344, %63 ], [ %77, %71 ]
  %indvars.iv.next = add nuw nsw i64 %indvars.iv, 1
  %81 = sext i32 %79 to i64
  %82 = icmp slt i64 %indvars.iv.next, %81
  br i1 %82, label %63, label %.loopexit, !llvm.loop !17

.loopexit:                                        ; preds = %78, %55, %35, %5, %._crit_edge, %32
  %.0 = phi i32 [ -1, %32 ], [ 0, %._crit_edge ], [ 0, %5 ], [ 0, %35 ], [ 0, %55 ], [ 0, %78 ]
  ret i32 %.0
}